; Function Attrs: mustprogress uwtable
define void @_Z17set_over_alloc_ddb(i1 noundef zeroext %0) local_unnamed_addr #0 personality ptr @__gxx_personality_v0 {
  %2 = tail call noundef i32 @pthread_mutex_lock(ptr noundef nonnull @_ZL16g_overAllocMutex) #18
  %.not.i.i = icmp eq i32 %2, 0
  br i1 %.not.i.i, label %_ZNSt10lock_guardISt5mutexEC2ERS0_.exit, label %3

3:                                                ; preds = %1
  tail call void @_ZSt20__throw_system_errori(i32 noundef %2) #17
  unreachable

_ZNSt10lock_guardISt5mutexEC2ERS0_.exit:          ; preds = %1
  %4 = zext i1 %0 to i8
  store i8 %4, ptr @_ZL14g_bOverAllocDD, align 1
  %5 = tail call noundef i32 @pthread_mutex_unlock(ptr noundef nonnull @_ZL16g_overAllocMutex) #18
  ret void
}